target datalayout = "e-m:e-p270:32:32-p271:32:32-p272:64:64-i64:64-i128:128-f80:128-n8:16:32:64-S128"
target triple = "x86_64-pc-linux-gnu"

%class.PreservedMarks = type { %class.Stack }
%class.Stack = type { ptr, %class.StackBase, ptr, ptr }
%class.StackBase = type { i64, i64, i64, i64, i64, i64 }
%class.PreservedMarksSet = type { i8, i32, ptr }
%class.Padded = type { %class.PreservedMarks, [256 x i8] }

@_ZTV5StackI13PreservedMarkL8MEMFLAGS5EE = linkonce_odr hidden unnamed_addr constant { [4 x ptr] } { [4 x ptr] [ptr null, ptr null, ptr @_ZN5StackI13PreservedMarkL8MEMFLAGS5EE5allocEm, ptr @_ZN5StackI13PreservedMarkL8MEMFLAGS5EE4freeEPS0_m] }, comdat, align 8

; Function Attrs: mustprogress nounwind uwtable
define linkonce_odr hidden noundef i64 @_Z10align_downImmTnNSt9enable_ifIXcvbsr3std11is_integralIT_EE5valueEiE4typeELi0EES1_S1_T0_(i64 noundef %0, i64 noundef %1) #1 comdat {
  %3 = alloca i64, align 8
  %4 = alloca i64, align 8
  %5 = alloca i64, align 8
  store i64 %0, ptr %3, align 8
  store i64 %1, ptr %4, align 8
  %6 = load i64, ptr %3, align 8
  %7 = load i64, ptr %4, align 8
  %8 = call noundef i64 @_ZL14alignment_maskImTnNSt9enable_ifIXcvbsr3std11is_integralIT_EE5valueEiE4typeELi0EES1_S1_(i64 noundef %7)
  %9 = xor i64 %8, -1
  %10 = and i64 %6, %9
  store i64 %10, ptr %5, align 8
  %11 = load i64, ptr %5, align 8
  ret i64 %11
}

; Function Attrs: mustprogress nounwind uwtable
define linkonce_odr hidden noundef i64 @_Z12checked_castImmET_T0_(i64 noundef %0) #1 comdat {
  %2 = alloca i64, align 8
  %3 = alloca i64, align 8
  store i64 %0, ptr %2, align 8
  %4 = load i64, ptr %2, align 8
  store i64 %4, ptr %3, align 8
  %5 = load i64, ptr %3, align 8
  ret i64 %5
}

; Function Attrs: mustprogress nounwind uwtable
define internal noundef i64 @_ZL14alignment_maskImTnNSt9enable_ifIXcvbsr3std11is_integralIT_EE5valueEiE4typeELi0EES1_S1_(i64 noundef %0) #1 {
  %2 = alloca i64, align 8
  store i64 %0, ptr %2, align 8
  %3 = load i64, ptr %2, align 8
  %4 = sub i64 %3, 1
  ret i64 %4
}

; Function Attrs: mustprogress nounwind uwtable
define linkonce_odr hidden noundef i64 @_Z8align_upImmTnNSt9enable_ifIXcvbsr3std11is_integralIT_EE5valueEiE4typeELi0EES1_S1_T0_(i64 noundef %0, i64 noundef %1) #1 comdat {
  %3 = alloca i64, align 8
  %4 = alloca i64, align 8
  %5 = alloca i64, align 8
  store i64 %0, ptr %3, align 8
  store i64 %1, ptr %4, align 8
  %6 = load i64, ptr %3, align 8
  %7 = load i64, ptr %4, align 8
  %8 = call noundef i64 @_ZL14alignment_maskImTnNSt9enable_ifIXcvbsr3std11is_integralIT_EE5valueEiE4typeELi0EES1_S1_(i64 noundef %7)
  %9 = add i64 %6, %8
  %10 = call noundef i64 @_Z12checked_castImmET_T0_(i64 noundef %9)
  store i64 %10, ptr %5, align 8
  %11 = load i64, ptr %5, align 8
  %12 = load i64, ptr %4, align 8
  %13 = call noundef i64 @_Z10align_downImmTnNSt9enable_ifIXcvbsr3std11is_integralIT_EE5valueEiE4typeELi0EES1_S1_T0_(i64 noundef %11, i64 noundef %12)
  ret i64 %13
}

; Function Attrs: mustprogress nounwind uwtable
define linkonce_odr hidden noundef ptr @_ZNK5StackI13PreservedMarkL8MEMFLAGS5EE9link_addrEPS0_(ptr noundef nonnull align 8 dereferenceable(72) %0, ptr noundef %1) #1 comdat align 2 {
  %3 = alloca ptr, align 8
  %4 = alloca ptr, align 8
  store ptr %0, ptr %3, align 8
  store ptr %1, ptr %4, align 8
  %5 = load ptr, ptr %3, align 8
  %6 = load ptr, ptr %4, align 8
  %7 = call noundef i64 @_ZNK5StackI13PreservedMarkL8MEMFLAGS5EE11link_offsetEv(ptr noundef nonnull align 8 dereferenceable(72) %5)
  %8 = getelementptr inbounds i8, ptr %6, i64 %7
  ret ptr %8
}

; Function Attrs: mustprogress nounwind uwtable
define linkonce_odr hidden noundef i64 @_ZNK5StackI13PreservedMarkL8MEMFLAGS5EE11link_offsetEv(ptr noundef nonnull align 8 dereferenceable(72) %0) #1 comdat align 2 {
  %2 = alloca ptr, align 8
  store ptr %0, ptr %2, align 8
  %3 = load ptr, ptr %2, align 8
  %4 = getelementptr inbounds i8, ptr %3, i64 8
  %5 = getelementptr inbounds %class.StackBase, ptr %4, i32 0, i32 0
  %6 = load i64, ptr %5, align 8
  %7 = mul i64 %6, 16
  %8 = call noundef i64 @_Z8align_upImmTnNSt9enable_ifIXcvbsr3std11is_integralIT_EE5valueEiE4typeELi0EES1_S1_T0_(i64 noundef %7, i64 noundef 8)
  ret i64 %8
}

; Function Attrs: mustprogress nounwind uwtable
define linkonce_odr hidden noundef ptr @_ZNK5StackI13PreservedMarkL8MEMFLAGS5EE8get_linkEPS0_(ptr noundef nonnull align 8 dereferenceable(72) %0, ptr noundef %1) #1 comdat align 2 {
  %3 = alloca ptr, align 8
  %4 = alloca ptr, align 8
  store ptr %0, ptr %3, align 8
  store ptr %1, ptr %4, align 8
  %5 = load ptr, ptr %3, align 8
  %6 = load ptr, ptr %4, align 8
  %7 = call noundef ptr @_ZNK5StackI13PreservedMarkL8MEMFLAGS5EE9link_addrEPS0_(ptr noundef nonnull align 8 dereferenceable(72) %5, ptr noundef %6)
  %8 = load ptr, ptr %7, align 8
  ret ptr %8
}

; Function Attrs: mustprogress nounwind uwtable
define linkonce_odr hidden noundef i64 @_ZNK5StackI13PreservedMarkL8MEMFLAGS5EE13segment_bytesEv(ptr noundef nonnull align 8 dereferenceable(72) %0) #1 comdat align 2 {
  %2 = alloca ptr, align 8
  store ptr %0, ptr %2, align 8
  %3 = load ptr, ptr %2, align 8
  %4 = call noundef i64 @_ZNK5StackI13PreservedMarkL8MEMFLAGS5EE11link_offsetEv(ptr noundef nonnull align 8 dereferenceable(72) %3)
  %5 = add i64 %4, 8
  ret i64 %5
}

; Function Attrs: mustprogress nounwind uwtable
define linkonce_odr hidden void @_ZN5StackI13PreservedMarkL8MEMFLAGS5EE5resetEb(ptr noundef nonnull align 8 dereferenceable(72) %0, i1 noundef zeroext %1) #1 comdat align 2 {
  %3 = alloca ptr, align 8
  %4 = alloca i8, align 1
  store ptr %0, ptr %3, align 8
  %5 = zext i1 %1 to i8
  store i8 %5, ptr %4, align 1
  %6 = load ptr, ptr %3, align 8
  %7 = getelementptr inbounds i8, ptr %6, i64 8
  %8 = getelementptr inbounds %class.StackBase, ptr %7, i32 0, i32 0
  %9 = load i64, ptr %8, align 8
  %10 = getelementptr inbounds i8, ptr %6, i64 8
  %11 = getelementptr inbounds %class.StackBase, ptr %10, i32 0, i32 3
  store i64 %9, ptr %11, align 8
  %12 = getelementptr inbounds i8, ptr %6, i64 8
  %13 = getelementptr inbounds %class.StackBase, ptr %12, i32 0, i32 4
  store i64 0, ptr %13, align 8
  %14 = getelementptr inbounds %class.Stack, ptr %6, i32 0, i32 2
  store ptr null, ptr %14, align 8
  %15 = load i8, ptr %4, align 1
  %16 = trunc i8 %15 to i1
  br i1 %16, label %17, label %21

17:                                               ; preds = %2
  %18 = getelementptr inbounds i8, ptr %6, i64 8
  %19 = getelementptr inbounds %class.StackBase, ptr %18, i32 0, i32 5
  store i64 0, ptr %19, align 8
  %20 = getelementptr inbounds %class.Stack, ptr %6, i32 0, i32 3
  store ptr null, ptr %20, align 8
  br label %21

21:                                               ; preds = %17, %2
  ret void
}

; Function Attrs: mustprogress nounwind uwtable
define linkonce_odr hidden void @_ZN5StackI13PreservedMarkL8MEMFLAGS5EE13free_segmentsEPS0_(ptr noundef nonnull align 8 dereferenceable(72) %0, ptr noundef %1) #1 comdat align 2 {
  %3 = alloca ptr, align 8
  %4 = alloca ptr, align 8
  %5 = alloca i64, align 8
  %6 = alloca ptr, align 8
  store ptr %0, ptr %3, align 8
  store ptr %1, ptr %4, align 8
  %7 = load ptr, ptr %3, align 8
  %8 = call noundef i64 @_ZNK5StackI13PreservedMarkL8MEMFLAGS5EE13segment_bytesEv(ptr noundef nonnull align 8 dereferenceable(72) %7)
  store i64 %8, ptr %5, align 8
  br label %9

9:                                                ; preds = %12, %2
  %10 = load ptr, ptr %4, align 8
  %11 = icmp ne ptr %10, null
  br i1 %11, label %12, label %21

12:                                               ; preds = %9
  %13 = load ptr, ptr %4, align 8
  %14 = call noundef ptr @_ZNK5StackI13PreservedMarkL8MEMFLAGS5EE8get_linkEPS0_(ptr noundef nonnull align 8 dereferenceable(72) %7, ptr noundef %13)
  store ptr %14, ptr %6, align 8
  %15 = load ptr, ptr %4, align 8
  %16 = load i64, ptr %5, align 8
  %17 = load ptr, ptr %7, align 8
  %18 = getelementptr inbounds ptr, ptr %17, i64 1
  %19 = load ptr, ptr %18, align 8
  call void %19(ptr noundef nonnull align 8 dereferenceable(72) %7, ptr noundef %15, i64 noundef %16)
  %20 = load ptr, ptr %6, align 8
  store ptr %20, ptr %4, align 8
  br label %9, !llvm.loop !12

21:                                               ; preds = %9
  ret void
}

; Function Attrs: mustprogress nounwind uwtable
define linkonce_odr hidden void @_ZN5StackI13PreservedMarkL8MEMFLAGS5EE5clearEb(ptr noundef nonnull align 8 dereferenceable(72) %0, i1 noundef zeroext %1) #1 comdat align 2 {
  %3 = alloca ptr, align 8
  %4 = alloca i8, align 1
  store ptr %0, ptr %3, align 8
  %5 = zext i1 %1 to i8
  store i8 %5, ptr %4, align 1
  %6 = load ptr, ptr %3, align 8
  %7 = getelementptr inbounds %class.Stack, ptr %6, i32 0, i32 2
  %8 = load ptr, ptr %7, align 8
  call void @_ZN5StackI13PreservedMarkL8MEMFLAGS5EE13free_segmentsEPS0_(ptr noundef nonnull align 8 dereferenceable(72) %6, ptr noundef %8)
  %9 = load i8, ptr %4, align 1
  %10 = trunc i8 %9 to i1
  br i1 %10, label %11, label %14

11:                                               ; preds = %2
  %12 = getelementptr inbounds %class.Stack, ptr %6, i32 0, i32 3
  %13 = load ptr, ptr %12, align 8
  call void @_ZN5StackI13PreservedMarkL8MEMFLAGS5EE13free_segmentsEPS0_(ptr noundef nonnull align 8 dereferenceable(72) %6, ptr noundef %13)
  br label %14

14:                                               ; preds = %11, %2
  %15 = load i8, ptr %4, align 1
  %16 = trunc i8 %15 to i1
  call void @_ZN5StackI13PreservedMarkL8MEMFLAGS5EE5resetEb(ptr noundef nonnull align 8 dereferenceable(72) %6, i1 noundef zeroext %16)
  ret void
}

; Function Attrs: mustprogress nounwind uwtable
define linkonce_odr hidden void @_ZN5StackI13PreservedMarkL8MEMFLAGS5EED2Ev(ptr noundef nonnull align 8 dereferenceable(72) %0) unnamed_addr #1 comdat align 2 {
  %2 = alloca ptr, align 8
  store ptr %0, ptr %2, align 8
  %3 = load ptr, ptr %2, align 8
  store ptr getelementptr inbounds inrange(-16, 16) ({ [4 x ptr] }, ptr @_ZTV5StackI13PreservedMarkL8MEMFLAGS5EE, i32 0, i32 0, i32 2), ptr %3, align 8
  call void @_ZN5StackI13PreservedMarkL8MEMFLAGS5EE5clearEb(ptr noundef nonnull align 8 dereferenceable(72) %3, i1 noundef zeroext true)
  ret void
}

; Function Attrs: mustprogress nounwind uwtable
define linkonce_odr hidden void @_ZN14PreservedMarks12assert_emptyEv(ptr noundef nonnull align 8 dereferenceable(72) %0) #1 comdat align 2 {
  %2 = alloca ptr, align 8
  store ptr %0, ptr %2, align 8
  ret void
}

; Function Attrs: mustprogress nounwind uwtable
define linkonce_odr hidden void @_ZN14PreservedMarksD2Ev(ptr noundef nonnull align 8 dereferenceable(72) %0) unnamed_addr #1 comdat align 2 {
  %2 = alloca ptr, align 8
  store ptr %0, ptr %2, align 8
  %3 = load ptr, ptr %2, align 8
  call void @_ZN14PreservedMarks12assert_emptyEv(ptr noundef nonnull align 8 dereferenceable(72) %3)
  %4 = getelementptr inbounds %class.PreservedMarks, ptr %3, i32 0, i32 0
  call void @_ZN5StackI13PreservedMarkL8MEMFLAGS5EED2Ev(ptr noundef nonnull align 8 dereferenceable(72) %4) #5
  ret void
}

; Function Attrs: mustprogress nounwind uwtable
define linkonce_odr hidden void @_ZN6PaddedI14PreservedMarksLm128EED2Ev(ptr noundef nonnull align 8 dereferenceable(328) %0) unnamed_addr #1 comdat align 2 {
  %2 = alloca ptr, align 8
  store ptr %0, ptr %2, align 8
  %3 = load ptr, ptr %2, align 8
  call void @_ZN14PreservedMarksD2Ev(ptr noundef nonnull align 8 dereferenceable(72) %3) #5
  ret void
}

; Function Attrs: mustprogress nounwind uwtable
define linkonce_odr hidden void @_ZN17PreservedMarksSet12assert_emptyEv(ptr noundef nonnull align 8 dereferenceable(16) %0) #1 comdat align 2 {
  %2 = alloca ptr, align 8
  store ptr %0, ptr %2, align 8
  ret void
}

; Function Attrs: mustprogress nounwind uwtable
define hidden void @_ZN17PreservedMarksSet7reclaimEv(ptr noundef nonnull align 8 dereferenceable(16) %0) #1 align 2 {
  %2 = alloca ptr, align 8
  %3 = alloca i32, align 4
  store ptr %0, ptr %2, align 8
  %4 = load ptr, ptr %2, align 8
  call void @_ZN17PreservedMarksSet12assert_emptyEv(ptr noundef nonnull align 8 dereferenceable(16) %4)
  store i32 0, ptr %3, align 4
  br label %5

5:                                                ; preds = %16, %1
  %6 = load i32, ptr %3, align 4
  %7 = getelementptr inbounds %class.PreservedMarksSet, ptr %4, i32 0, i32 1
  %8 = load i32, ptr %7, align 4
  %9 = icmp ult i32 %6, %8
  br i1 %9, label %10, label %19

10:                                               ; preds = %5
  %11 = getelementptr inbounds %class.PreservedMarksSet, ptr %4, i32 0, i32 2
  %12 = load ptr, ptr %11, align 8
  %13 = load i32, ptr %3, align 4
  %14 = zext i32 %13 to i64
  %15 = getelementptr inbounds %class.Padded, ptr %12, i64 %14
  call void @_ZN6PaddedI14PreservedMarksLm128EED2Ev(ptr noundef nonnull align 8 dereferenceable(328) %15) #5
  br label %16

16:                                               ; preds = %10
  %17 = load i32, ptr %3, align 4
  %18 = add i32 %17, 1
  store i32 %18, ptr %3, align 4
  br label %5, !llvm.loop !11

19:                                               ; preds = %5
  %20 = getelementptr inbounds %class.PreservedMarksSet, ptr %4, i32 0, i32 0
  %21 = load i8, ptr %20, align 8
  %22 = trunc i8 %21 to i1
  br i1 %22, label %23, label %26

23:                                               ; preds = %19
  %24 = getelementptr inbounds %class.PreservedMarksSet, ptr %4, i32 0, i32 2
  %25 = load ptr, ptr %24, align 8
  call void @_Z8FreeHeapPv(ptr noundef %25)
  br label %27

26:                                               ; preds = %19
  br label %27

27:                                               ; preds = %26, %23
  %28 = getelementptr inbounds %class.PreservedMarksSet, ptr %4, i32 0, i32 2
  store ptr null, ptr %28, align 8
  %29 = getelementptr inbounds %class.PreservedMarksSet, ptr %4, i32 0, i32 1
  store i32 0, ptr %29, align 4
  ret void
}