; Function Attrs: mustprogress nounwind uwtable
define hidden void @_ZN17PreservedMarksSet7reclaimEv(ptr nocapture noundef nonnull align 8 dereferenceable(16) %0) local_unnamed_addr #0 align 2 {
  %2 = getelementptr inbounds i8, ptr %0, i64 4
  %3 = load i32, ptr %2, align 4
  %.not = icmp eq i32 %3, 0
  br i1 %.not, label %._crit_edge, label %.lr.ph

.lr.ph:                                           ; preds = %1
  %4 = getelementptr inbounds i8, ptr %0, i64 8
  br label %5

5:                                                ; preds = %.lr.ph, %_ZN6PaddedI14PreservedMarksLm128EED2Ev.exit
  %indvars.iv = phi i64 [ 0, %.lr.ph ], [ %indvars.iv.next, %_ZN6PaddedI14PreservedMarksLm128EED2Ev.exit ]
  %6 = load ptr, ptr %4, align 8
  %7 = getelementptr inbounds %class.Padded, ptr %6, i64 %indvars.iv
  store ptr getelementptr inbounds inrange(-16, 16) (i8, ptr @_ZTV5StackI13PreservedMarkL8MEMFLAGS5EE, i64 16), ptr %7, align 8
  %8 = getelementptr inbounds i8, ptr %7, i64 56
  %9 = load ptr, ptr %8, align 8
  %10 = getelementptr inbounds i8, ptr %7, i64 8
  %11 = load i64, ptr %10, align 8
  %12 = shl i64 %11, 4
  %13 = or disjoint i64 %12, 8
  %.not5.i.i.i.i.i = icmp eq ptr %9, null
  br i1 %.not5.i.i.i.i.i, label %_ZN5StackI13PreservedMarkL8MEMFLAGS5EE13free_segmentsEPS0_.exit.i.i.i.i, label %.lr.ph.i.i.i.i.i

.lr.ph.i.i.i.i.i:                                 ; preds = %5, %.lr.ph.i.i.i.i.i
  %.06.i.i.i.i.i = phi ptr [ %17, %.lr.ph.i.i.i.i.i ], [ %9, %5 ]
  %14 = load i64, ptr %10, align 8
  %15 = shl i64 %14, 4
  %16 = getelementptr inbounds i8, ptr %.06.i.i.i.i.i, i64 %15
  %17 = load ptr, ptr %16, align 8
  %18 = load ptr, ptr %7, align 8
  %19 = getelementptr inbounds i8, ptr %18, i64 8
  %20 = load ptr, ptr %19, align 8
  tail call void %20(ptr noundef nonnull align 8 dereferenceable(72) %7, ptr noundef nonnull %.06.i.i.i.i.i, i64 noundef %13) #7
  %.not.i.i.i.i.i = icmp eq ptr %17, null
  br i1 %.not.i.i.i.i.i, label %_ZN5StackI13PreservedMarkL8MEMFLAGS5EE13free_segmentsEPS0_.exit.i.loopexit.i.i.i, label %.lr.ph.i.i.i.i.i, !llvm.loop !12

_ZN5StackI13PreservedMarkL8MEMFLAGS5EE13free_segmentsEPS0_.exit.i.loopexit.i.i.i: ; preds = %.lr.ph.i.i.i.i.i
  %.pre.i.i.i = load i64, ptr %10, align 8
  %.pre1.i.i.i = shl i64 %.pre.i.i.i, 4
  %.pre2.i.i.i = or disjoint i64 %.pre1.i.i.i, 8
  br label %_ZN5StackI13PreservedMarkL8MEMFLAGS5EE13free_segmentsEPS0_.exit.i.i.i.i

_ZN5StackI13PreservedMarkL8MEMFLAGS5EE13free_segmentsEPS0_.exit.i.i.i.i: ; preds = %_ZN5StackI13PreservedMarkL8MEMFLAGS5EE13free_segmentsEPS0_.exit.i.loopexit.i.i.i, %5
  %.pre-phi3.i.i.i = phi i64 [ %.pre2.i.i.i, %_ZN5StackI13PreservedMarkL8MEMFLAGS5EE13free_segmentsEPS0_.exit.i.loopexit.i.i.i ], [ %13, %5 ]
  %21 = phi i64 [ %.pre.i.i.i, %_ZN5StackI13PreservedMarkL8MEMFLAGS5EE13free_segmentsEPS0_.exit.i.loopexit.i.i.i ], [ %11, %5 ]
  %22 = getelementptr inbounds i8, ptr %7, i64 64
  %23 = load ptr, ptr %22, align 8
  %.not5.i2.i.i.i.i = icmp eq ptr %23, null
  br i1 %.not5.i2.i.i.i.i, label %_ZN6PaddedI14PreservedMarksLm128EED2Ev.exit, label %.lr.ph.i3.i.i.i.i

.lr.ph.i3.i.i.i.i:                                ; preds = %_ZN5StackI13PreservedMarkL8MEMFLAGS5EE13free_segmentsEPS0_.exit.i.i.i.i, %.lr.ph.i3.i.i.i.i
  %.06.i4.i.i.i.i = phi ptr [ %27, %.lr.ph.i3.i.i.i.i ], [ %23, %_ZN5StackI13PreservedMarkL8MEMFLAGS5EE13free_segmentsEPS0_.exit.i.i.i.i ]
  %24 = load i64, ptr %10, align 8
  %25 = shl i64 %24, 4
  %26 = getelementptr inbounds i8, ptr %.06.i4.i.i.i.i, i64 %25
  %27 = load ptr, ptr %26, align 8
  %28 = load ptr, ptr %7, align 8
  %29 = getelementptr inbounds i8, ptr %28, i64 8
  %30 = load ptr, ptr %29, align 8
  tail call void %30(ptr noundef nonnull align 8 dereferenceable(72) %7, ptr noundef nonnull %.06.i4.i.i.i.i, i64 noundef %.pre-phi3.i.i.i) #7
  %.not.i5.i.i.i.i = icmp eq ptr %27, null
  br i1 %.not.i5.i.i.i.i, label %_ZN5StackI13PreservedMarkL8MEMFLAGS5EE13free_segmentsEPS0_.exit6.i.i.i.i, label %.lr.ph.i3.i.i.i.i, !llvm.loop !12

_ZN5StackI13PreservedMarkL8MEMFLAGS5EE13free_segmentsEPS0_.exit6.i.i.i.i: ; preds = %.lr.ph.i3.i.i.i.i
  %31 = load i64, ptr %10, align 8
  br label %_ZN6PaddedI14PreservedMarksLm128EED2Ev.exit

_ZN6PaddedI14PreservedMarksLm128EED2Ev.exit:      ; preds = %_ZN5StackI13PreservedMarkL8MEMFLAGS5EE13free_segmentsEPS0_.exit.i.i.i.i, %_ZN5StackI13PreservedMarkL8MEMFLAGS5EE13free_segmentsEPS0_.exit6.i.i.i.i
  %.sink.i.i.i.i = phi i64 [ %31, %_ZN5StackI13PreservedMarkL8MEMFLAGS5EE13free_segmentsEPS0_.exit6.i.i.i.i ], [ %21, %_ZN5StackI13PreservedMarkL8MEMFLAGS5EE13free_segmentsEPS0_.exit.i.i.i.i ]
  %32 = getelementptr inbounds i8, ptr %7, i64 32
  store i64 %.sink.i.i.i.i, ptr %32, align 8
  %33 = getelementptr inbounds i8, ptr %7, i64 40
  tail call void @llvm.memset.p0.i64(ptr noundef nonnull align 8 dereferenceable(32) %33, i8 0, i64 32, i1 false)
  %indvars.iv.next = add nuw nsw i64 %indvars.iv, 1
  %34 = load i32, ptr %2, align 4
  %35 = zext i32 %34 to i64
  %36 = icmp ult i64 %indvars.iv.next, %35
  br i1 %36, label %5, label %._crit_edge, !llvm.loop !13

._crit_edge:                                      ; preds = %_ZN6PaddedI14PreservedMarksLm128EED2Ev.exit, %1
  %37 = load i8, ptr %0, align 8
  %38 = trunc i8 %37 to i1
  br i1 %38, label %39, label %42

39:                                               ; preds = %._crit_edge
  %40 = getelementptr inbounds i8, ptr %0, i64 8
  %41 = load ptr, ptr %40, align 8
  tail call void @_Z8FreeHeapPv(ptr noundef %41) #7
  br label %42

42:                                               ; preds = %._crit_edge, %39
  %43 = getelementptr inbounds i8, ptr %0, i64 8
  store ptr null, ptr %43, align 8
  store i32 0, ptr %2, align 4
  ret void
}